target datalayout = "e-m:e-p270:32:32-p271:32:32-p272:64:64-i64:64-i128:128-f80:128-n8:16:32:64-S128"
target triple = "x86_64-pc-linux-gnu"

@ett_286j = internal global i32 0, align 4
@.str = private unnamed_addr constant [8 x i8] c"RCID_IE\00", align 1
@hf_dlmap_rcid_ie_cid = internal global i32 0, align 4
@hf_dlmap_rcid_ie_prefix = internal global i32 0, align 4
@hf_dlmap_rcid_ie_cid11 = internal global i32 0, align 4
@hf_dlmap_rcid_ie_cid7 = internal global i32 0, align 4
@hf_dlmap_rcid_ie_cid3 = internal global i32 0, align 4
@.str.1 = private unnamed_addr constant [12 x i8] c" (CID = %d)\00", align 1

; Function Attrs: null_pointer_is_valid sspstrong uwtable
define hidden i32 @RCID_IE(ptr noundef %0, i32 noundef %1, i32 noundef %2, ptr noundef %3, i32 noundef %4) #0 {
  %6 = alloca ptr, align 8
  %7 = alloca i32, align 4
  %8 = alloca i32, align 4
  %9 = alloca ptr, align 8
  %10 = alloca i32, align 4
  %11 = alloca i32, align 4
  %12 = alloca ptr, align 8
  %13 = alloca ptr, align 8
  %14 = alloca i32, align 4
  %15 = alloca i32, align 4
  store ptr %0, ptr %6, align 8
  store i32 %1, ptr %7, align 4
  store i32 %2, ptr %8, align 4
  store ptr %3, ptr %9, align 8
  store i32 %4, ptr %10, align 4
  call void @llvm.lifetime.start.p0(i64 4, ptr %11) #3
  %16 = load i32, ptr %7, align 4
  store i32 %16, ptr %11, align 4
  call void @llvm.lifetime.start.p0(i64 8, ptr %12) #3
  store ptr null, ptr %12, align 8
  call void @llvm.lifetime.start.p0(i64 8, ptr %13) #3
  store ptr null, ptr %13, align 8
  call void @llvm.lifetime.start.p0(i64 4, ptr %14) #3
  store i32 0, ptr %14, align 4
  call void @llvm.lifetime.start.p0(i64 4, ptr %15) #3
  store i32 0, ptr %15, align 4
  %17 = load i32, ptr %10, align 4
  %18 = icmp eq i32 %17, 0
  br i1 %18, label %19, label %20

19:                                               ; preds = %5
  store i32 16, ptr %8, align 4
  br label %51

20:                                               ; preds = %5
  %21 = load ptr, ptr %9, align 8
  %22 = load i32, ptr %11, align 4
  %23 = sdiv i32 %22, 8
  %24 = call zeroext i8 @tvb_get_uint8(ptr noundef %21, i32 noundef %23)
  %25 = zext i8 %24 to i32
  %26 = load i32, ptr %11, align 4
  %27 = srem i32 %26, 8
  %28 = sub i32 8, %27
  %29 = sub i32 %28, 1
  %30 = ashr i32 %25, %29
  %31 = and i32 %30, 1
  store i32 %31, ptr %14, align 4
  %32 = load i32, ptr %14, align 4
  %33 = icmp eq i32 %32, 1
  br i1 %33, label %34, label %35

34:                                               ; preds = %20
  store i32 12, ptr %8, align 4
  br label %50

35:                                               ; preds = %20
  %36 = load i32, ptr %10, align 4
  %37 = icmp eq i32 %36, 1
  br i1 %37, label %38, label %39

38:                                               ; preds = %35
  store i32 12, ptr %8, align 4
  br label %49

39:                                               ; preds = %35
  %40 = load i32, ptr %10, align 4
  %41 = icmp eq i32 %40, 2
  br i1 %41, label %42, label %43

42:                                               ; preds = %39
  store i32 8, ptr %8, align 4
  br label %48

43:                                               ; preds = %39
  %44 = load i32, ptr %10, align 4
  %45 = icmp eq i32 %44, 3
  br i1 %45, label %46, label %47

46:                                               ; preds = %43
  store i32 4, ptr %8, align 4
  br label %47

47:                                               ; preds = %46, %43
  br label %48

48:                                               ; preds = %47, %42
  br label %49

49:                                               ; preds = %48, %38
  br label %50

50:                                               ; preds = %49, %34
  br label %51

51:                                               ; preds = %50, %19
  %52 = load ptr, ptr %6, align 8
  %53 = load ptr, ptr %9, align 8
  %54 = load i32, ptr %11, align 4
  %55 = sdiv i32 %54, 8
  %56 = load i32, ptr %11, align 4
  %57 = srem i32 %56, 8
  %58 = load i32, ptr %8, align 4
  %59 = add i32 %57, %58
  %60 = sub i32 %59, 1
  %61 = sdiv i32 %60, 8
  %62 = add i32 1, %61
  %63 = load i32, ptr @ett_286j, align 4
  %64 = call ptr @proto_tree_add_subtree(ptr noundef %52, ptr noundef %53, i32 noundef %55, i32 noundef %62, i32 noundef %63, ptr noundef %12, ptr noundef @.str)
  store ptr %64, ptr %13, align 8
  %65 = load i32, ptr %10, align 4
  %66 = icmp eq i32 %65, 0
  br i1 %66, label %67, label %88

67:                                               ; preds = %51
  br label %68

68:                                               ; preds = %67
  %69 = load ptr, ptr %9, align 8
  %70 = load i32, ptr %11, align 4
  %71 = sdiv i32 %70, 8
  %72 = call i32 @tvb_get_ntohl(ptr noundef %69, i32 noundef %71)
  %73 = load i32, ptr %11, align 4
  %74 = srem i32 %73, 8
  %75 = sub i32 32, %74
  %76 = sub i32 %75, 16
  %77 = lshr i32 %72, %76
  %78 = and i32 %77, 65535
  store i32 %78, ptr %15, align 4
  %79 = load ptr, ptr %13, align 8
  %80 = load i32, ptr @hf_dlmap_rcid_ie_cid, align 4
  %81 = load ptr, ptr %9, align 8
  %82 = load i32, ptr %11, align 4
  %83 = call ptr @proto_tree_add_bits_item(ptr noundef %79, i32 noundef %80, ptr noundef %81, i32 noundef %82, i32 noundef 16, i32 noundef 0)
  %84 = load i32, ptr %11, align 4
  %85 = add i32 %84, 16
  store i32 %85, ptr %11, align 4
  br label %86

86:                                               ; preds = %68
  br label %87

87:                                               ; preds = %86
  br label %211

88:                                               ; preds = %51
  br label %89

89:                                               ; preds = %88
  %90 = load ptr, ptr %9, align 8
  %91 = load i32, ptr %11, align 4
  %92 = sdiv i32 %91, 8
  %93 = call zeroext i8 @tvb_get_uint8(ptr noundef %90, i32 noundef %92)
  %94 = zext i8 %93 to i32
  %95 = load i32, ptr %11, align 4
  %96 = srem i32 %95, 8
  %97 = sub i32 8, %96
  %98 = sub i32 %97, 1
  %99 = ashr i32 %94, %98
  %100 = and i32 %99, 1
  store i32 %100, ptr %14, align 4
  %101 = load ptr, ptr %13, align 8
  %102 = load i32, ptr @hf_dlmap_rcid_ie_prefix, align 4
  %103 = load ptr, ptr %9, align 8
  %104 = load i32, ptr %11, align 4
  %105 = call ptr @proto_tree_add_bits_item(ptr noundef %101, i32 noundef %102, ptr noundef %103, i32 noundef %104, i32 noundef 1, i32 noundef 0)
  %106 = load i32, ptr %11, align 4
  %107 = add i32 %106, 1
  store i32 %107, ptr %11, align 4
  br label %108

108:                                              ; preds = %89
  br label %109

109:                                              ; preds = %108
  %110 = load i32, ptr %14, align 4
  %111 = icmp eq i32 %110, 1
  br i1 %111, label %112, label %133

112:                                              ; preds = %109
  br label %113

113:                                              ; preds = %112
  %114 = load ptr, ptr %9, align 8
  %115 = load i32, ptr %11, align 4
  %116 = sdiv i32 %115, 8
  %117 = call i32 @tvb_get_ntohl(ptr noundef %114, i32 noundef %116)
  %118 = load i32, ptr %11, align 4
  %119 = srem i32 %118, 8
  %120 = sub i32 32, %119
  %121 = sub i32 %120, 11
  %122 = lshr i32 %117, %121
  %123 = and i32 %122, 2047
  store i32 %123, ptr %15, align 4
  %124 = load ptr, ptr %13, align 8
  %125 = load i32, ptr @hf_dlmap_rcid_ie_cid11, align 4
  %126 = load ptr, ptr %9, align 8
  %127 = load i32, ptr %11, align 4
  %128 = call ptr @proto_tree_add_bits_item(ptr noundef %124, i32 noundef %125, ptr noundef %126, i32 noundef %127, i32 noundef 11, i32 noundef 0)
  %129 = load i32, ptr %11, align 4
  %130 = add i32 %129, 11
  store i32 %130, ptr %11, align 4
  br label %131

131:                                              ; preds = %113
  br label %132

132:                                              ; preds = %131
  br label %210

133:                                              ; preds = %109
  %134 = load i32, ptr %10, align 4
  %135 = icmp eq i32 %134, 1
  br i1 %135, label %136, label %157

136:                                              ; preds = %133
  br label %137

137:                                              ; preds = %136
  %138 = load ptr, ptr %9, align 8
  %139 = load i32, ptr %11, align 4
  %140 = sdiv i32 %139, 8
  %141 = call i32 @tvb_get_ntohl(ptr noundef %138, i32 noundef %140)
  %142 = load i32, ptr %11, align 4
  %143 = srem i32 %142, 8
  %144 = sub i32 32, %143
  %145 = sub i32 %144, 11
  %146 = lshr i32 %141, %145
  %147 = and i32 %146, 2047
  store i32 %147, ptr %15, align 4
  %148 = load ptr, ptr %13, align 8
  %149 = load i32, ptr @hf_dlmap_rcid_ie_cid11, align 4
  %150 = load ptr, ptr %9, align 8
  %151 = load i32, ptr %11, align 4
  %152 = call ptr @proto_tree_add_bits_item(ptr noundef %148, i32 noundef %149, ptr noundef %150, i32 noundef %151, i32 noundef 11, i32 noundef 0)
  %153 = load i32, ptr %11, align 4
  %154 = add i32 %153, 11
  store i32 %154, ptr %11, align 4
  br label %155

155:                                              ; preds = %137
  br label %156

156:                                              ; preds = %155
  br label %209

157:                                              ; preds = %133
  %158 = load i32, ptr %10, align 4
  %159 = icmp eq i32 %158, 2
  br i1 %159, label %160, label %182

160:                                              ; preds = %157
  br label %161

161:                                              ; preds = %160
  %162 = load ptr, ptr %9, align 8
  %163 = load i32, ptr %11, align 4
  %164 = sdiv i32 %163, 8
  %165 = call zeroext i16 @tvb_get_ntohs(ptr noundef %162, i32 noundef %164)
  %166 = zext i16 %165 to i32
  %167 = load i32, ptr %11, align 4
  %168 = srem i32 %167, 8
  %169 = sub i32 16, %168
  %170 = sub i32 %169, 7
  %171 = ashr i32 %166, %170
  %172 = and i32 %171, 127
  store i32 %172, ptr %15, align 4
  %173 = load ptr, ptr %13, align 8
  %174 = load i32, ptr @hf_dlmap_rcid_ie_cid7, align 4
  %175 = load ptr, ptr %9, align 8
  %176 = load i32, ptr %11, align 4
  %177 = call ptr @proto_tree_add_bits_item(ptr noundef %173, i32 noundef %174, ptr noundef %175, i32 noundef %176, i32 noundef 7, i32 noundef 0)
  %178 = load i32, ptr %11, align 4
  %179 = add i32 %178, 7
  store i32 %179, ptr %11, align 4
  br label %180

180:                                              ; preds = %161
  br label %181

181:                                              ; preds = %180
  br label %208

182:                                              ; preds = %157
  %183 = load i32, ptr %10, align 4
  %184 = icmp eq i32 %183, 3
  br i1 %184, label %185, label %207

185:                                              ; preds = %182
  br label %186

186:                                              ; preds = %185
  %187 = load ptr, ptr %9, align 8
  %188 = load i32, ptr %11, align 4
  %189 = sdiv i32 %188, 8
  %190 = call zeroext i16 @tvb_get_ntohs(ptr noundef %187, i32 noundef %189)
  %191 = zext i16 %190 to i32
  %192 = load i32, ptr %11, align 4
  %193 = srem i32 %192, 8
  %194 = sub i32 16, %193
  %195 = sub i32 %194, 3
  %196 = ashr i32 %191, %195
  %197 = and i32 %196, 7
  store i32 %197, ptr %15, align 4
  %198 = load ptr, ptr %13, align 8
  %199 = load i32, ptr @hf_dlmap_rcid_ie_cid3, align 4
  %200 = load ptr, ptr %9, align 8
  %201 = load i32, ptr %11, align 4
  %202 = call ptr @proto_tree_add_bits_item(ptr noundef %198, i32 noundef %199, ptr noundef %200, i32 noundef %201, i32 noundef 3, i32 noundef 0)
  %203 = load i32, ptr %11, align 4
  %204 = add i32 %203, 3
  store i32 %204, ptr %11, align 4
  br label %205

205:                                              ; preds = %186
  br label %206

206:                                              ; preds = %205
  br label %207

207:                                              ; preds = %206, %182
  br label %208

208:                                              ; preds = %207, %181
  br label %209

209:                                              ; preds = %208, %156
  br label %210

210:                                              ; preds = %209, %132
  br label %211

211:                                              ; preds = %210, %87
  %212 = load ptr, ptr %12, align 8
  %213 = load i32, ptr %15, align 4
  call void (ptr, ptr, ...) @proto_item_append_text(ptr noundef %212, ptr noundef @.str.1, i32 noundef %213)
  %214 = load i32, ptr %8, align 4
  call void @llvm.lifetime.end.p0(i64 4, ptr %15) #3
  call void @llvm.lifetime.end.p0(i64 4, ptr %14) #3
  call void @llvm.lifetime.end.p0(i64 8, ptr %13) #3
  call void @llvm.lifetime.end.p0(i64 8, ptr %12) #3
  call void @llvm.lifetime.end.p0(i64 4, ptr %11) #3
  ret i32 %214
}