; Function Attrs: null_pointer_is_valid sspstrong uwtable
define hidden noundef i32 @RCID_IE(ptr noundef %0, i32 noundef %1, i32 noundef %2, ptr noundef %3, i32 noundef %4) local_unnamed_addr #0 {
  %6 = alloca ptr, align 8
  call void @llvm.lifetime.start.p0(i64 8, ptr nonnull %6) #3
  store ptr null, ptr %6, align 8
  %7 = icmp eq i32 %4, 0
  %.pre = sdiv i32 %1, 8
  %8 = srem i32 %1, 8
  br i1 %7, label %._crit_edge, label %9

._crit_edge:                                      ; preds = %5
  %.pre65 = srem i32 %1, 8
  br label %18

9:                                                ; preds = %5
  %10 = tail call zeroext i8 @tvb_get_uint8(ptr noundef %3, i32 noundef %.pre)
  %11 = zext i8 %10 to i32
  %12 = sub nsw i32 7, %8
  %13 = shl nuw nsw i32 1, %12
  %14 = and i32 %13, %11
  %.not = icmp eq i32 %14, 0
  br i1 %.not, label %15, label %18

15:                                               ; preds = %9
  switch i32 %4, label %.fold.split [
    i32 1, label %18
    i32 2, label %16
    i32 3, label %17
  ]

16:                                               ; preds = %15
  br label %18

17:                                               ; preds = %15
  br label %18

.fold.split:                                      ; preds = %15
  br label %18

18:                                               ; preds = %._crit_edge, %15, %.fold.split, %9, %16, %17
  %.pre-phi66 = phi i32 [ %.pre65, %._crit_edge ], [ %8, %15 ], [ %8, %.fold.split ], [ %8, %9 ], [ %8, %16 ], [ %8, %17 ]
  %.062 = phi i32 [ 16, %._crit_edge ], [ 12, %15 ], [ %2, %.fold.split ], [ 12, %9 ], [ 8, %16 ], [ 4, %17 ]
  %19 = add nsw i32 %.pre-phi66, -1
  %20 = add i32 %19, %.062
  %21 = sdiv i32 %20, 8
  %22 = add nsw i32 %21, 1
  %23 = load i32, ptr @ett_286j, align 4
  %24 = call ptr @proto_tree_add_subtree(ptr noundef %0, ptr noundef %3, i32 noundef %.pre, i32 noundef %22, i32 noundef %23, ptr noundef nonnull %6, ptr noundef nonnull @.str)
  br i1 %7, label %25, label %32

25:                                               ; preds = %18
  %26 = call i32 @tvb_get_ntohl(ptr noundef %3, i32 noundef %.pre)
  %27 = sub nsw i32 16, %.pre-phi66
  %28 = lshr i32 %26, %27
  %29 = and i32 %28, 65535
  %30 = load i32, ptr @hf_dlmap_rcid_ie_cid, align 4
  %31 = call ptr @proto_tree_add_bits_item(ptr noundef %24, i32 noundef %30, ptr noundef %3, i32 noundef %1, i32 noundef 16, i32 noundef 0)
  br label %80

32:                                               ; preds = %18
  %33 = call zeroext i8 @tvb_get_uint8(ptr noundef %3, i32 noundef %.pre)
  %34 = zext i8 %33 to i32
  %35 = sub nsw i32 7, %.pre-phi66
  %36 = load i32, ptr @hf_dlmap_rcid_ie_prefix, align 4
  %37 = call ptr @proto_tree_add_bits_item(ptr noundef %24, i32 noundef %36, ptr noundef %3, i32 noundef %1, i32 noundef 1, i32 noundef 0)
  %38 = add i32 %1, 1
  %39 = shl nuw nsw i32 1, %35
  %40 = and i32 %39, %34
  %.not64 = icmp eq i32 %40, 0
  br i1 %.not64, label %50, label %41

41:                                               ; preds = %32
  %42 = sdiv i32 %38, 8
  %43 = call i32 @tvb_get_ntohl(ptr noundef %3, i32 noundef %42)
  %44 = srem i32 %38, 8
  %45 = sub nsw i32 21, %44
  %46 = lshr i32 %43, %45
  %47 = and i32 %46, 2047
  %48 = load i32, ptr @hf_dlmap_rcid_ie_cid11, align 4
  %49 = call ptr @proto_tree_add_bits_item(ptr noundef %24, i32 noundef %48, ptr noundef %3, i32 noundef %38, i32 noundef 11, i32 noundef 0)
  br label %80

50:                                               ; preds = %32
  switch i32 %4, label %80 [
    i32 1, label %51
    i32 2, label %60
    i32 3, label %70
  ]

51:                                               ; preds = %50
  %52 = sdiv i32 %38, 8
  %53 = call i32 @tvb_get_ntohl(ptr noundef %3, i32 noundef %52)
  %54 = srem i32 %38, 8
  %55 = sub nsw i32 21, %54
  %56 = lshr i32 %53, %55
  %57 = and i32 %56, 2047
  %58 = load i32, ptr @hf_dlmap_rcid_ie_cid11, align 4
  %59 = call ptr @proto_tree_add_bits_item(ptr noundef %24, i32 noundef %58, ptr noundef %3, i32 noundef %38, i32 noundef 11, i32 noundef 0)
  br label %80

60:                                               ; preds = %50
  %61 = sdiv i32 %38, 8
  %62 = call zeroext i16 @tvb_get_ntohs(ptr noundef %3, i32 noundef %61)
  %63 = zext i16 %62 to i32
  %64 = srem i32 %38, 8
  %65 = sub nsw i32 9, %64
  %66 = lshr i32 %63, %65
  %67 = and i32 %66, 127
  %68 = load i32, ptr @hf_dlmap_rcid_ie_cid7, align 4
  %69 = call ptr @proto_tree_add_bits_item(ptr noundef %24, i32 noundef %68, ptr noundef %3, i32 noundef %38, i32 noundef 7, i32 noundef 0)
  br label %80

70:                                               ; preds = %50
  %71 = sdiv i32 %38, 8
  %72 = call zeroext i16 @tvb_get_ntohs(ptr noundef %3, i32 noundef %71)
  %73 = zext i16 %72 to i32
  %74 = srem i32 %38, 8
  %75 = sub nsw i32 13, %74
  %76 = lshr i32 %73, %75
  %77 = and i32 %76, 7
  %78 = load i32, ptr @hf_dlmap_rcid_ie_cid3, align 4
  %79 = call ptr @proto_tree_add_bits_item(ptr noundef %24, i32 noundef %78, ptr noundef %3, i32 noundef %38, i32 noundef 3, i32 noundef 0)
  br label %80

80:                                               ; preds = %50, %41, %60, %70, %51, %25
  %.0 = phi i32 [ %29, %25 ], [ %47, %41 ], [ %57, %51 ], [ %67, %60 ], [ %77, %70 ], [ 0, %50 ]
  %81 = load ptr, ptr %6, align 8
  call void (ptr, ptr, ...) @proto_item_append_text(ptr noundef %81, ptr noundef nonnull @.str.1, i32 noundef %.0)
  call void @llvm.lifetime.end.p0(i64 8, ptr nonnull %6) #3
  ret i32 %.062
}